target datalayout = "e-m:e-p270:32:32-p271:32:32-p272:64:64-i64:64-i128:128-f80:128-n8:16:32:64-S128"
target triple = "x86_64-pc-linux-gnu"

; Function Attrs: nounwind uwtable
define dso_local i32 @_PyToken_OneChar(i32 noundef %0) #0 {
  %2 = alloca i32, align 4
  %3 = alloca i32, align 4
  store i32 %0, ptr %3, align 4, !tbaa !4
  %4 = load i32, ptr %3, align 4, !tbaa !4
  switch i32 %4, label %29 [
    i32 33, label %5
    i32 37, label %6
    i32 38, label %7
    i32 40, label %8
    i32 41, label %9
    i32 42, label %10
    i32 43, label %11
    i32 44, label %12
    i32 45, label %13
    i32 46, label %14
    i32 47, label %15
    i32 58, label %16
    i32 59, label %17
    i32 60, label %18
    i32 61, label %19
    i32 62, label %20
    i32 64, label %21
    i32 91, label %22
    i32 93, label %23
    i32 94, label %24
    i32 123, label %25
    i32 124, label %26
    i32 125, label %27
    i32 126, label %28
  ]

5:                                                ; preds = %1
  store i32 54, ptr %2, align 4
  br label %30

6:                                                ; preds = %1
  store i32 24, ptr %2, align 4
  br label %30

7:                                                ; preds = %1
  store i32 19, ptr %2, align 4
  br label %30

8:                                                ; preds = %1
  store i32 7, ptr %2, align 4
  br label %30

9:                                                ; preds = %1
  store i32 8, ptr %2, align 4
  br label %30

10:                                               ; preds = %1
  store i32 16, ptr %2, align 4
  br label %30

11:                                               ; preds = %1
  store i32 14, ptr %2, align 4
  br label %30

12:                                               ; preds = %1
  store i32 12, ptr %2, align 4
  br label %30

13:                                               ; preds = %1
  store i32 15, ptr %2, align 4
  br label %30

14:                                               ; preds = %1
  store i32 23, ptr %2, align 4
  br label %30

15:                                               ; preds = %1
  store i32 17, ptr %2, align 4
  br label %30

16:                                               ; preds = %1
  store i32 11, ptr %2, align 4
  br label %30

17:                                               ; preds = %1
  store i32 13, ptr %2, align 4
  br label %30

18:                                               ; preds = %1
  store i32 20, ptr %2, align 4
  br label %30

19:                                               ; preds = %1
  store i32 22, ptr %2, align 4
  br label %30

20:                                               ; preds = %1
  store i32 21, ptr %2, align 4
  br label %30

21:                                               ; preds = %1
  store i32 49, ptr %2, align 4
  br label %30

22:                                               ; preds = %1
  store i32 9, ptr %2, align 4
  br label %30

23:                                               ; preds = %1
  store i32 10, ptr %2, align 4
  br label %30

24:                                               ; preds = %1
  store i32 32, ptr %2, align 4
  br label %30

25:                                               ; preds = %1
  store i32 25, ptr %2, align 4
  br label %30

26:                                               ; preds = %1
  store i32 18, ptr %2, align 4
  br label %30

27:                                               ; preds = %1
  store i32 26, ptr %2, align 4
  br label %30

28:                                               ; preds = %1
  store i32 31, ptr %2, align 4
  br label %30

29:                                               ; preds = %1
  store i32 55, ptr %2, align 4
  br label %30

30:                                               ; preds = %29, %28, %27, %26, %25, %24, %23, %22, %21, %20, %19, %18, %17, %16, %15, %14, %13, %12, %11, %10, %9, %8, %7, %6, %5
  %31 = load i32, ptr %2, align 4
  ret i32 %31
}