; Function Attrs: mustprogress nofree norecurse nosync nounwind willreturn memory(none) uwtable
define dso_local range(i32 7, 56) i32 @_PyToken_OneChar(i32 noundef %0) local_unnamed_addr #0 {
  switch i32 %0, label %25 [
    i32 33, label %26
    i32 37, label %2
    i32 38, label %3
    i32 40, label %4
    i32 41, label %5
    i32 42, label %6
    i32 43, label %7
    i32 44, label %8
    i32 45, label %9
    i32 46, label %10
    i32 47, label %11
    i32 58, label %12
    i32 59, label %13
    i32 60, label %14
    i32 61, label %15
    i32 62, label %16
    i32 64, label %17
    i32 91, label %18
    i32 93, label %19
    i32 94, label %20
    i32 123, label %21
    i32 124, label %22
    i32 125, label %23
    i32 126, label %24
  ]

2:                                                ; preds = %1
  br label %26

3:                                                ; preds = %1
  br label %26

4:                                                ; preds = %1
  br label %26

5:                                                ; preds = %1
  br label %26

6:                                                ; preds = %1
  br label %26

7:                                                ; preds = %1
  br label %26

8:                                                ; preds = %1
  br label %26

9:                                                ; preds = %1
  br label %26

10:                                               ; preds = %1
  br label %26

11:                                               ; preds = %1
  br label %26

12:                                               ; preds = %1
  br label %26

13:                                               ; preds = %1
  br label %26

14:                                               ; preds = %1
  br label %26

15:                                               ; preds = %1
  br label %26

16:                                               ; preds = %1
  br label %26

17:                                               ; preds = %1
  br label %26

18:                                               ; preds = %1
  br label %26

19:                                               ; preds = %1
  br label %26

20:                                               ; preds = %1
  br label %26

21:                                               ; preds = %1
  br label %26

22:                                               ; preds = %1
  br label %26

23:                                               ; preds = %1
  br label %26

24:                                               ; preds = %1
  br label %26

25:                                               ; preds = %1
  br label %26

26:                                               ; preds = %1, %25, %24, %23, %22, %21, %20, %19, %18, %17, %16, %15, %14, %13, %12, %11, %10, %9, %8, %7, %6, %5, %4, %3, %2
  %.0 = phi i32 [ 55, %25 ], [ 31, %24 ], [ 26, %23 ], [ 18, %22 ], [ 25, %21 ], [ 32, %20 ], [ 10, %19 ], [ 9, %18 ], [ 49, %17 ], [ 21, %16 ], [ 22, %15 ], [ 20, %14 ], [ 13, %13 ], [ 11, %12 ], [ 17, %11 ], [ 23, %10 ], [ 15, %9 ], [ 12, %8 ], [ 14, %7 ], [ 16, %6 ], [ 8, %5 ], [ 7, %4 ], [ 19, %3 ], [ 24, %2 ], [ 54, %1 ]
  ret i32 %.0
}